(dp0
VC:\u005cUsers\u005cAdministrator\u005cDesktop\u005csafe and sound\u005csad\u005cBeautiful Life-Dingke.mp3
p1
L-2L
sVC:\u005cUsers\u005cAdministrator\u005cDesktop\u005csafe and sound\u005csad\u005cFree Loop-Daniel Powter.mp3
p2
L-1L
sVC:\u005cUsers\u005cAdministrator\u005cDesktop\u005csafe and sound\u005csad\u005clost without you-josh vietti.mp3
p3
L3L
sVC:\u005cUsers\u005cAdministrator\u005cDesktop\u005csafe and sound\u005csad\u005cserenade-Jim Brickman.mp3
p4
L-1L
sVC:\u005cUsers\u005cAdministrator\u005cDesktop\u005csafe and sound\u005csad\u005cthe street wind lives-Yukiko Isomura.mp3
p5
L3L
s.