(dp0
VC:\u005cUsers\u005cAdministrator\u005cDesktop\u005csafe and sound\u005cnot bad\u005cimagination-Shawn Mendes.mp3
p1
L4L
sVC:\u005cUsers\u005cAdministrator\u005cDesktop\u005csafe and sound\u005cnot bad\u005cNew Soul-Yael Naim.mp3
p2
L0L
sVC:\u005cUsers\u005cAdministrator\u005cDesktop\u005csafe and sound\u005cnot bad\u005cNightingale-Yanni.mp3
p3
L0L
sVC:\u005cUsers\u005cAdministrator\u005cDesktop\u005csafe and sound\u005cnot bad\u005cTimber-Pitbull & Ke$ha.mp3
p4
L0L
sVC:\u005cUsers\u005cAdministrator\u005cDesktop\u005csafe and sound\u005cnot bad\u005cTry-Jay Chou&Weijun Pai.mp3
p5
L0L
s.